; Function Attrs: nounwind uwtable
define noalias nonnull ptr @l_Lean_isTracingEnabledFor___at_Lean_Elab_Term_CollectPatternVars_main___spec__1(ptr noundef %0, ptr noundef readnone captures(none) %1, ptr noundef readnone captures(none) %2, ptr noundef readnone captures(none) %3, ptr noundef readnone captures(none) %4, ptr noundef readnone captures(none) %5, ptr noundef readonly captures(none) %6, ptr noundef readnone captures(none) %7, ptr noundef %8) local_unnamed_addr #0 {
  %10 = getelementptr inbounds nuw i8, ptr %6, i64 104
  %11 = load ptr, ptr %10, align 8, !tbaa !11
  %12 = getelementptr inbounds nuw i8, ptr %6, i64 24
  %13 = load ptr, ptr %12, align 8, !tbaa !11
  %14 = tail call zeroext i8 @l_Lean_checkTraceOption(ptr noundef %11, ptr noundef %13, ptr noundef %0) #6
  tail call void @lean_inc_heartbeat() #6
  %15 = tail call noalias ptr @mi_malloc_small(i64 noundef 24) #6
  %16 = icmp eq ptr %15, null
  br i1 %16, label %17, label %lean_alloc_ctor.exit

17:                                               ; preds = %9
  tail call void @lean_internal_panic_out_of_memory() #7
  unreachable

lean_alloc_ctor.exit:                             ; preds = %9
  %18 = zext i8 %14 to i64
  %19 = shl nuw nsw i64 %18, 1
  %20 = or disjoint i64 %19, 1
  %21 = inttoptr i64 %20 to ptr
  %22 = getelementptr inbounds nuw i8, ptr %15, i64 4
  store i32 1, ptr %15, align 4, !tbaa !8
  store i32 131096, ptr %22, align 4
  %23 = getelementptr inbounds nuw i8, ptr %15, i64 8
  store ptr %21, ptr %23, align 8, !tbaa !11
  %24 = getelementptr inbounds nuw i8, ptr %15, i64 16
  store ptr %8, ptr %24, align 8, !tbaa !11
  ret ptr %15
}